; Listing generated by Microsoft (R) Optimizing Compiler Version 19.24.28319.0 

include listing.inc

INCLUDELIB LIBCMT
INCLUDELIB OLDNAMES

PUBLIC	main
PUBLIC	__real@3f4ccccd
PUBLIC	__real@3feccccccccccccd
EXTRN	putchar:PROC
EXTRN	dummy:PROC
EXTRN	_fltused:DWORD
pdata	SEGMENT
$pdata$main DD	imagerel $LN3
	DD	imagerel $LN3+87
	DD	imagerel $unwind$main
pdata	ENDS
;	COMDAT __real@3feccccccccccccd
CONST	SEGMENT
__real@3feccccccccccccd DQ 03feccccccccccccdr	; 0.9
CONST	ENDS
;	COMDAT __real@3f4ccccd
CONST	SEGMENT
__real@3f4ccccd DD 03f4ccccdr			; 0.8
CONST	ENDS
xdata	SEGMENT
$unwind$main DD	010401H
	DD	04204H
xdata	ENDS
; Function compile flags: /Odtp
; File C:\Users\leon\source\repos\Compiler\Compiler\test\mini.c
_TEXT	SEGMENT
main	PROC

; 7    : {

$LN3:
  00000	48 83 ec 28	 sub	 rsp, 40			; 00000028H

; 8    :     putchar(104); // 'h'

  00004	b9 68 00 00 00	 mov	 ecx, 104		; 00000068H
  00009	e8 00 00 00 00	 call	 putchar

; 9    :     putchar(111); // 'o'

  0000e	b9 6f 00 00 00	 mov	 ecx, 111		; 0000006fH
  00013	e8 00 00 00 00	 call	 putchar

; 10   :     putchar(108); // 'l'

  00018	b9 6c 00 00 00	 mov	 ecx, 108		; 0000006cH
  0001d	e8 00 00 00 00	 call	 putchar

; 11   :     putchar(97);  // 'a'

  00022	b9 61 00 00 00	 mov	 ecx, 97			; 00000061H
  00027	e8 00 00 00 00	 call	 putchar

; 12   :     putchar(10);  // '\n'

  0002c	b9 0a 00 00 00	 mov	 ecx, 10
  00031	e8 00 00 00 00	 call	 putchar

; 13   :     dummy(8, 0.8f, 0.9);

  00036	f2 0f 10 15 00
	00 00 00	 movsd	 xmm2, QWORD PTR __real@3feccccccccccccd
  0003e	f3 0f 10 0d 00
	00 00 00	 movss	 xmm1, DWORD PTR __real@3f4ccccd
  00046	b9 08 00 00 00	 mov	 ecx, 8
  0004b	e8 00 00 00 00	 call	 dummy

; 14   :     return 0;

  00050	33 c0		 xor	 eax, eax

; 15   : }

  00052	48 83 c4 28	 add	 rsp, 40			; 00000028H
  00056	c3		 ret	 0
main	ENDP
_TEXT	ENDS
END
