; Listing generated by Microsoft (R) Optimizing Compiler Version 19.24.28319.0 

include listing.inc

INCLUDELIB LIBCMT
INCLUDELIB OLDNAMES

PUBLIC	main
PUBLIC	__real@3dcccccd
PUBLIC	__real@3fe999999999999a
EXTRN	putchar:PROC
EXTRN	dummy:PROC
EXTRN	dummy2:PROC
EXTRN	_fltused:DWORD
pdata	SEGMENT
$pdata$main DD	imagerel $LN3
	DD	imagerel $LN3+109
	DD	imagerel $unwind$main
pdata	ENDS
;	COMDAT __real@3fe999999999999a
CONST	SEGMENT
__real@3fe999999999999a DQ 03fe999999999999ar	; 0.8
CONST	ENDS
;	COMDAT __real@3dcccccd
CONST	SEGMENT
__real@3dcccccd DD 03dcccccdr			; 0.1
CONST	ENDS
xdata	SEGMENT
$unwind$main DD	010401H
	DD	06204H
xdata	ENDS
; Function compile flags: /Odtp
; File C:\Users\leon\source\repos\Compiler\Compiler\test\ref.c
_TEXT	SEGMENT
ch$ = 32
main	PROC

; 13   : {

$LN3:
  00000	48 83 ec 38	 sub	 rsp, 56			; 00000038H

; 14   :     struct Ch ch= { .a = 10 }; 

  00004	c7 44 24 20 0a
	00 00 00	 mov	 DWORD PTR ch$[rsp], 10

; 15   :     putchar(104); // 'h'

  0000c	b9 68 00 00 00	 mov	 ecx, 104		; 00000068H
  00011	e8 00 00 00 00	 call	 putchar

; 16   :     putchar(111); // 'o'

  00016	b9 6f 00 00 00	 mov	 ecx, 111		; 0000006fH
  0001b	e8 00 00 00 00	 call	 putchar

; 17   :     putchar(108); // 'l'

  00020	b9 6c 00 00 00	 mov	 ecx, 108		; 0000006cH
  00025	e8 00 00 00 00	 call	 putchar

; 18   :     putchar(97);  // 'a'

  0002a	b9 61 00 00 00	 mov	 ecx, 97			; 00000061H
  0002f	e8 00 00 00 00	 call	 putchar

; 19   :     putchar(10);  // '\n'

  00034	b9 0a 00 00 00	 mov	 ecx, 10
  00039	e8 00 00 00 00	 call	 putchar

; 20   :     dummy(1, 0.1);

  0003e	f3 0f 10 0d 00
	00 00 00	 movss	 xmm1, DWORD PTR __real@3dcccccd
  00046	b9 01 00 00 00	 mov	 ecx, 1
  0004b	e8 00 00 00 00	 call	 dummy

; 21   :     dummy2(8, ch, 0.8);

  00050	f2 0f 10 15 00
	00 00 00	 movsd	 xmm2, QWORD PTR __real@3fe999999999999a
  00058	8b 54 24 20	 mov	 edx, DWORD PTR ch$[rsp]
  0005c	b9 08 00 00 00	 mov	 ecx, 8
  00061	e8 00 00 00 00	 call	 dummy2

; 22   :     return 0;

  00066	33 c0		 xor	 eax, eax

; 23   : }

  00068	48 83 c4 38	 add	 rsp, 56			; 00000038H
  0006c	c3		 ret	 0
main	ENDP
_TEXT	ENDS
END
