; Listing generated by Microsoft (R) Optimizing Compiler Version 19.26.28805.0 

include listing.inc

INCLUDELIB LIBCMT
INCLUDELIB OLDNAMES

PUBLIC	main
PUBLIC	__real@3dcccccd
PUBLIC	__real@3fe999999999999a
EXTRN	putchar:PROC
EXTRN	dummy:PROC
EXTRN	dummy2:PROC
EXTRN	__GSHandlerCheck:PROC
EXTRN	__security_check_cookie:PROC
EXTRN	__security_cookie:QWORD
EXTRN	_fltused:DWORD
pdata	SEGMENT
$pdata$main DD	imagerel $LN6
	DD	imagerel $LN6+296
	DD	imagerel $unwind$main
pdata	ENDS
;	COMDAT __real@3fe999999999999a
CONST	SEGMENT
__real@3fe999999999999a DQ 03fe999999999999ar	; 0.8
CONST	ENDS
;	COMDAT __real@3dcccccd
CONST	SEGMENT
__real@3dcccccd DD 03dcccccdr			; 0.1
CONST	ENDS
xdata	SEGMENT
$unwind$main DD	031b19H
	DD	0360109H
	DD	07002H
	DD	imagerel __GSHandlerCheck
	DD	01a0H
xdata	ENDS
; Function compile flags: /Odtp
; File C:\Users\leon\source\repos\Compiler\Compiler\test\ref.c
_TEXT	SEGMENT
a$ = 32
ck$ = 36
x$ = 40
ch$ = 44
u$ = 48
A_ins$ = 56
c$ = 96
__$ArrayPad$ = 416
main	PROC

; 33   : {

$LN6:
  00000	40 57		 push	 rdi
  00002	48 81 ec b0 01
	00 00		 sub	 rsp, 432		; 000001b0H
  00009	48 8b 05 00 00
	00 00		 mov	 rax, QWORD PTR __security_cookie
  00010	48 33 c4	 xor	 rax, rsp
  00013	48 89 84 24 a0
	01 00 00	 mov	 QWORD PTR __$ArrayPad$[rsp], rax

; 34   :     struct Ch ch= { .a = 10 }; 

  0001b	c7 44 24 2c 0a
	00 00 00	 mov	 DWORD PTR ch$[rsp], 10

; 35   :     struct A A_ins;
; 36   :     A_ins.d.e.k = 10;

  00023	c7 44 24 4c 0a
	00 00 00	 mov	 DWORD PTR A_ins$[rsp+20], 10

; 37   :     int u = A_ins.d.e.k;

  0002b	8b 44 24 4c	 mov	 eax, DWORD PTR A_ins$[rsp+20]
  0002f	89 44 24 30	 mov	 DWORD PTR u$[rsp], eax

; 38   :     int x = -10;

  00033	c7 44 24 28 f6
	ff ff ff	 mov	 DWORD PTR x$[rsp], -10

; 39   :     int ck = x | 2;

  0003b	8b 44 24 28	 mov	 eax, DWORD PTR x$[rsp]
  0003f	83 c8 02	 or	 eax, 2
  00042	89 44 24 24	 mov	 DWORD PTR ck$[rsp], eax

; 40   :     putchar(104); // 'h'

  00046	b9 68 00 00 00	 mov	 ecx, 104		; 00000068H
  0004b	e8 00 00 00 00	 call	 putchar

; 41   :     putchar(111); // 'o'

  00050	b9 6f 00 00 00	 mov	 ecx, 111		; 0000006fH
  00055	e8 00 00 00 00	 call	 putchar

; 42   :     putchar(108); // 'l'

  0005a	b9 6c 00 00 00	 mov	 ecx, 108		; 0000006cH
  0005f	e8 00 00 00 00	 call	 putchar

; 43   :     putchar(97);  // 'a'

  00064	b9 61 00 00 00	 mov	 ecx, 97			; 00000061H
  00069	e8 00 00 00 00	 call	 putchar

; 44   :     putchar(10);  // '\n'

  0006e	b9 0a 00 00 00	 mov	 ecx, 10
  00073	e8 00 00 00 00	 call	 putchar

; 45   :     dummy(1, 0.1);

  00078	f3 0f 10 0d 00
	00 00 00	 movss	 xmm1, DWORD PTR __real@3dcccccd
  00080	b9 01 00 00 00	 mov	 ecx, 1
  00085	e8 00 00 00 00	 call	 dummy

; 46   :     dummy2(8, ch, 0.8);

  0008a	f2 0f 10 15 00
	00 00 00	 movsd	 xmm2, QWORD PTR __real@3fe999999999999a
  00092	8b 54 24 2c	 mov	 edx, DWORD PTR ch$[rsp]
  00096	b9 08 00 00 00	 mov	 ecx, 8
  0009b	e8 00 00 00 00	 call	 dummy2

; 47   :     int a = 10;

  000a0	c7 44 24 20 0a
	00 00 00	 mov	 DWORD PTR a$[rsp], 10

; 48   :     if(ck == 1 && ck == 2){

  000a8	83 7c 24 24 01	 cmp	 DWORD PTR ck$[rsp], 1
  000ad	75 11		 jne	 SHORT $LN2@main
  000af	83 7c 24 24 02	 cmp	 DWORD PTR ck$[rsp], 2
  000b4	75 0a		 jne	 SHORT $LN2@main

; 49   :       ++a;

  000b6	8b 44 24 20	 mov	 eax, DWORD PTR a$[rsp]
  000ba	ff c0		 inc	 eax
  000bc	89 44 24 20	 mov	 DWORD PTR a$[rsp], eax
$LN2@main:

; 50   :     }
; 51   :     if(ck==1 || ck==2){

  000c0	83 7c 24 24 01	 cmp	 DWORD PTR ck$[rsp], 1
  000c5	74 07		 je	 SHORT $LN4@main
  000c7	83 7c 24 24 02	 cmp	 DWORD PTR ck$[rsp], 2
  000cc	75 0a		 jne	 SHORT $LN3@main
$LN4@main:

; 52   :       ++a;

  000ce	8b 44 24 20	 mov	 eax, DWORD PTR a$[rsp]
  000d2	ff c0		 inc	 eax
  000d4	89 44 24 20	 mov	 DWORD PTR a$[rsp], eax
$LN3@main:

; 53   :     }
; 54   : 	int c[10][8] = {{ 2, a }};

  000d8	c7 44 24 60 02
	00 00 00	 mov	 DWORD PTR c$[rsp], 2
  000e0	8b 44 24 20	 mov	 eax, DWORD PTR a$[rsp]
  000e4	89 44 24 64	 mov	 DWORD PTR c$[rsp+4], eax
  000e8	48 8d 44 24 68	 lea	 rax, QWORD PTR c$[rsp+8]
  000ed	48 8b f8	 mov	 rdi, rax
  000f0	33 c0		 xor	 eax, eax
  000f2	b9 18 00 00 00	 mov	 ecx, 24
  000f7	f3 aa		 rep stosb
  000f9	48 8d 84 24 80
	00 00 00	 lea	 rax, QWORD PTR c$[rsp+32]
  00101	48 8b f8	 mov	 rdi, rax
  00104	33 c0		 xor	 eax, eax
  00106	b9 20 01 00 00	 mov	 ecx, 288		; 00000120H
  0010b	f3 aa		 rep stosb

; 55   :     return 0;

  0010d	33 c0		 xor	 eax, eax

; 56   : }

  0010f	48 8b 8c 24 a0
	01 00 00	 mov	 rcx, QWORD PTR __$ArrayPad$[rsp]
  00117	48 33 cc	 xor	 rcx, rsp
  0011a	e8 00 00 00 00	 call	 __security_check_cookie
  0011f	48 81 c4 b0 01
	00 00		 add	 rsp, 432		; 000001b0H
  00126	5f		 pop	 rdi
  00127	c3		 ret	 0
main	ENDP
_TEXT	ENDS
END
